target datalayout = "e-m:e-p270:32:32-p271:32:32-p272:64:64-i64:64-i128:128-f80:128-n8:16:32:64-S128"
target triple = "x86_64-pc-linux-gnu"

; Function Attrs: inlinehint mustprogress nounwind uwtable
define internal void @_ZL5svmulfPKfPf(float noundef %0, ptr noundef %1, ptr noundef %2) #8 {
  %4 = alloca float, align 4
  %5 = alloca ptr, align 8
  %6 = alloca ptr, align 8
  store float %0, ptr %4, align 4, !tbaa !92
  store ptr %1, ptr %5, align 8, !tbaa !68
  store ptr %2, ptr %6, align 8, !tbaa !68
  %7 = load float, ptr %4, align 4, !tbaa !92
  %8 = load ptr, ptr %5, align 8, !tbaa !68
  %9 = getelementptr inbounds float, ptr %8, i64 0
  %10 = load float, ptr %9, align 4, !tbaa !92
  %11 = fmul float %7, %10
  %12 = load ptr, ptr %6, align 8, !tbaa !68
  %13 = getelementptr inbounds float, ptr %12, i64 0
  store float %11, ptr %13, align 4, !tbaa !92
  %14 = load float, ptr %4, align 4, !tbaa !92
  %15 = load ptr, ptr %5, align 8, !tbaa !68
  %16 = getelementptr inbounds float, ptr %15, i64 1
  %17 = load float, ptr %16, align 4, !tbaa !92
  %18 = fmul float %14, %17
  %19 = load ptr, ptr %6, align 8, !tbaa !68
  %20 = getelementptr inbounds float, ptr %19, i64 1
  store float %18, ptr %20, align 4, !tbaa !92
  %21 = load float, ptr %4, align 4, !tbaa !92
  %22 = load ptr, ptr %5, align 8, !tbaa !68
  %23 = getelementptr inbounds float, ptr %22, i64 2
  %24 = load float, ptr %23, align 4, !tbaa !92
  %25 = fmul float %21, %24
  %26 = load ptr, ptr %6, align 8, !tbaa !68
  %27 = getelementptr inbounds float, ptr %26, i64 2
  store float %25, ptr %27, align 4, !tbaa !92
  ret void
}

; Function Attrs: inlinehint mustprogress nounwind uwtable
define internal void @_ZL10clear_dvecPd(ptr noundef %0) #8 {
  %2 = alloca ptr, align 8
  store ptr %0, ptr %2, align 8, !tbaa !105
  %3 = load ptr, ptr %2, align 8, !tbaa !105
  %4 = getelementptr inbounds double, ptr %3, i64 0
  store double 0.000000e+00, ptr %4, align 8, !tbaa !107
  %5 = load ptr, ptr %2, align 8, !tbaa !105
  %6 = getelementptr inbounds double, ptr %5, i64 1
  store double 0.000000e+00, ptr %6, align 8, !tbaa !107
  %7 = load ptr, ptr %2, align 8, !tbaa !105
  %8 = getelementptr inbounds double, ptr %7, i64 2
  store double 0.000000e+00, ptr %8, align 8, !tbaa !107
  ret void
}

; Function Attrs: mustprogress uwtable
define noundef double @_Z20get_sum_of_positionsPA3_KfPfiPd(ptr noundef %0, ptr noundef %1, i32 noundef %2, ptr noundef %3) #0 {
  %5 = alloca ptr, align 8
  %6 = alloca ptr, align 8
  %7 = alloca i32, align 4
  %8 = alloca ptr, align 8
  %9 = alloca i32, align 4
  %10 = alloca [3 x float], align 4
  %11 = alloca double, align 8
  store ptr %0, ptr %5, align 8, !tbaa !68
  store ptr %1, ptr %6, align 8, !tbaa !68
  store i32 %2, ptr %7, align 4, !tbaa !9
  store ptr %3, ptr %8, align 8, !tbaa !105
  call void @llvm.lifetime.start.p0(i64 4, ptr %9) #10
  call void @llvm.lifetime.start.p0(i64 12, ptr %10) #10
  call void @llvm.lifetime.start.p0(i64 8, ptr %11) #10
  store double 0.000000e+00, ptr %11, align 8, !tbaa !107
  %12 = load ptr, ptr %8, align 8, !tbaa !105
  call void @_ZL10clear_dvecPd(ptr noundef %12)
  %13 = load ptr, ptr %6, align 8, !tbaa !68
  %14 = icmp ne ptr %13, null
  br i1 %14, label %15, label %65

15:                                               ; preds = %4
  store i32 0, ptr %9, align 4, !tbaa !9
  br label %16

16:                                               ; preds = %61, %15
  %17 = load i32, ptr %9, align 4, !tbaa !9
  %18 = load i32, ptr %7, align 4, !tbaa !9
  %19 = icmp slt i32 %17, %18
  br i1 %19, label %20, label %64

20:                                               ; preds = %16
  %21 = load ptr, ptr %6, align 8, !tbaa !68
  %22 = load i32, ptr %9, align 4, !tbaa !9
  %23 = sext i32 %22 to i64
  %24 = getelementptr inbounds float, ptr %21, i64 %23
  %25 = load float, ptr %24, align 4, !tbaa !92
  %26 = fpext float %25 to double
  %27 = load double, ptr %11, align 8, !tbaa !107
  %28 = fadd double %27, %26
  store double %28, ptr %11, align 8, !tbaa !107
  %29 = load ptr, ptr %6, align 8, !tbaa !68
  %30 = load i32, ptr %9, align 4, !tbaa !9
  %31 = sext i32 %30 to i64
  %32 = getelementptr inbounds float, ptr %29, i64 %31
  %33 = load float, ptr %32, align 4, !tbaa !92
  %34 = load ptr, ptr %5, align 8, !tbaa !68
  %35 = load i32, ptr %9, align 4, !tbaa !9
  %36 = sext i32 %35 to i64
  %37 = getelementptr inbounds [3 x float], ptr %34, i64 %36
  %38 = getelementptr inbounds [3 x float], ptr %37, i64 0, i64 0
  %39 = getelementptr inbounds [3 x float], ptr %10, i64 0, i64 0
  call void @_ZL5svmulfPKfPf(float noundef %33, ptr noundef %38, ptr noundef %39)
  %40 = getelementptr inbounds [3 x float], ptr %10, i64 0, i64 0
  %41 = load float, ptr %40, align 4, !tbaa !92
  %42 = fpext float %41 to double
  %43 = load ptr, ptr %8, align 8, !tbaa !105
  %44 = getelementptr inbounds double, ptr %43, i64 0
  %45 = load double, ptr %44, align 8, !tbaa !107
  %46 = fadd double %45, %42
  store double %46, ptr %44, align 8, !tbaa !107
  %47 = getelementptr inbounds [3 x float], ptr %10, i64 0, i64 1
  %48 = load float, ptr %47, align 4, !tbaa !92
  %49 = fpext float %48 to double
  %50 = load ptr, ptr %8, align 8, !tbaa !105
  %51 = getelementptr inbounds double, ptr %50, i64 1
  %52 = load double, ptr %51, align 8, !tbaa !107
  %53 = fadd double %52, %49
  store double %53, ptr %51, align 8, !tbaa !107
  %54 = getelementptr inbounds [3 x float], ptr %10, i64 0, i64 2
  %55 = load float, ptr %54, align 4, !tbaa !92
  %56 = fpext float %55 to double
  %57 = load ptr, ptr %8, align 8, !tbaa !105
  %58 = getelementptr inbounds double, ptr %57, i64 2
  %59 = load double, ptr %58, align 8, !tbaa !107
  %60 = fadd double %59, %56
  store double %60, ptr %58, align 8, !tbaa !107
  br label %61

61:                                               ; preds = %20
  %62 = load i32, ptr %9, align 4, !tbaa !9
  %63 = add nsw i32 %62, 1
  store i32 %63, ptr %9, align 4, !tbaa !9
  br label %16, !llvm.loop !109

64:                                               ; preds = %16
  br label %108

65:                                               ; preds = %4
  store i32 0, ptr %9, align 4, !tbaa !9
  br label %66

66:                                               ; preds = %104, %65
  %67 = load i32, ptr %9, align 4, !tbaa !9
  %68 = load i32, ptr %7, align 4, !tbaa !9
  %69 = icmp slt i32 %67, %68
  br i1 %69, label %70, label %107

70:                                               ; preds = %66
  %71 = load ptr, ptr %5, align 8, !tbaa !68
  %72 = load i32, ptr %9, align 4, !tbaa !9
  %73 = sext i32 %72 to i64
  %74 = getelementptr inbounds [3 x float], ptr %71, i64 %73
  %75 = getelementptr inbounds [3 x float], ptr %74, i64 0, i64 0
  %76 = load float, ptr %75, align 4, !tbaa !92
  %77 = fpext float %76 to double
  %78 = load ptr, ptr %8, align 8, !tbaa !105
  %79 = getelementptr inbounds double, ptr %78, i64 0
  %80 = load double, ptr %79, align 8, !tbaa !107
  %81 = fadd double %80, %77
  store double %81, ptr %79, align 8, !tbaa !107
  %82 = load ptr, ptr %5, align 8, !tbaa !68
  %83 = load i32, ptr %9, align 4, !tbaa !9
  %84 = sext i32 %83 to i64
  %85 = getelementptr inbounds [3 x float], ptr %82, i64 %84
  %86 = getelementptr inbounds [3 x float], ptr %85, i64 0, i64 1
  %87 = load float, ptr %86, align 4, !tbaa !92
  %88 = fpext float %87 to double
  %89 = load ptr, ptr %8, align 8, !tbaa !105
  %90 = getelementptr inbounds double, ptr %89, i64 1
  %91 = load double, ptr %90, align 8, !tbaa !107
  %92 = fadd double %91, %88
  store double %92, ptr %90, align 8, !tbaa !107
  %93 = load ptr, ptr %5, align 8, !tbaa !68
  %94 = load i32, ptr %9, align 4, !tbaa !9
  %95 = sext i32 %94 to i64
  %96 = getelementptr inbounds [3 x float], ptr %93, i64 %95
  %97 = getelementptr inbounds [3 x float], ptr %96, i64 0, i64 2
  %98 = load float, ptr %97, align 4, !tbaa !92
  %99 = fpext float %98 to double
  %100 = load ptr, ptr %8, align 8, !tbaa !105
  %101 = getelementptr inbounds double, ptr %100, i64 2
  %102 = load double, ptr %101, align 8, !tbaa !107
  %103 = fadd double %102, %99
  store double %103, ptr %101, align 8, !tbaa !107
  br label %104

104:                                              ; preds = %70
  %105 = load i32, ptr %9, align 4, !tbaa !9
  %106 = add nsw i32 %105, 1
  store i32 %106, ptr %9, align 4, !tbaa !9
  br label %66, !llvm.loop !110

107:                                              ; preds = %66
  br label %108

108:                                              ; preds = %107, %64
  %109 = load double, ptr %11, align 8, !tbaa !107
  call void @llvm.lifetime.end.p0(i64 8, ptr %11) #10
  call void @llvm.lifetime.end.p0(i64 12, ptr %10) #10
  call void @llvm.lifetime.end.p0(i64 4, ptr %9) #10
  ret double %109
}