; Function Attrs: mustprogress nofree norecurse nosync nounwind memory(argmem: readwrite) uwtable
define noundef double @_Z20get_sum_of_positionsPA3_KfPfiPd(ptr noundef readonly captures(none) %0, ptr noundef readonly %1, i32 noundef %2, ptr noundef writeonly captures(none) initializes((0, 24)) %3) local_unnamed_addr #5 {
  tail call void @llvm.memset.p0.i64(ptr noundef nonnull align 8 dereferenceable(24) %3, i8 0, i64 24, i1 false)
  %.not = icmp eq ptr %1, null
  %5 = icmp sgt i32 %2, 0
  br i1 %.not, label %.preheader, label %.preheader30

.preheader30:                                     ; preds = %4
  br i1 %5, label %.lr.ph, label %.loopexit

.lr.ph:                                           ; preds = %.preheader30
  %6 = getelementptr inbounds nuw i8, ptr %3, i64 8
  %7 = getelementptr inbounds nuw i8, ptr %3, i64 16
  %wide.trip.count = zext nneg i32 %2 to i64
  br label %10

.preheader:                                       ; preds = %4
  br i1 %5, label %.lr.ph39, label %.loopexit

.lr.ph39:                                         ; preds = %.preheader
  %8 = getelementptr inbounds nuw i8, ptr %3, i64 8
  %9 = getelementptr inbounds nuw i8, ptr %3, i64 16
  %wide.trip.count56 = zext nneg i32 %2 to i64
  br label %33

10:                                               ; preds = %.lr.ph, %10
  %indvars.iv = phi i64 [ 0, %.lr.ph ], [ %indvars.iv.next, %10 ]
  %11 = phi double [ 0.000000e+00, %.lr.ph ], [ %32, %10 ]
  %12 = phi double [ 0.000000e+00, %.lr.ph ], [ %30, %10 ]
  %13 = phi double [ 0.000000e+00, %.lr.ph ], [ %28, %10 ]
  %.033 = phi double [ 0.000000e+00, %.lr.ph ], [ %17, %10 ]
  %14 = getelementptr inbounds nuw float, ptr %1, i64 %indvars.iv
  %15 = load float, ptr %14, align 4, !tbaa !37
  %16 = fpext float %15 to double
  %17 = fadd double %.033, %16
  %18 = getelementptr inbounds nuw [3 x float], ptr %0, i64 %indvars.iv
  %19 = load float, ptr %18, align 4, !tbaa !37
  %20 = fmul float %15, %19
  %21 = getelementptr inbounds nuw i8, ptr %18, i64 4
  %22 = load float, ptr %21, align 4, !tbaa !37
  %23 = fmul float %15, %22
  %24 = getelementptr inbounds nuw i8, ptr %18, i64 8
  %25 = load float, ptr %24, align 4, !tbaa !37
  %26 = fmul float %15, %25
  %27 = fpext float %20 to double
  %28 = fadd double %13, %27
  %29 = fpext float %23 to double
  %30 = fadd double %12, %29
  %31 = fpext float %26 to double
  %32 = fadd double %11, %31
  %indvars.iv.next = add nuw nsw i64 %indvars.iv, 1
  %exitcond.not = icmp eq i64 %indvars.iv.next, %wide.trip.count
  br i1 %exitcond.not, label %..loopexit31_crit_edge, label %10, !llvm.loop !68

33:                                               ; preds = %.lr.ph39, %33
  %indvars.iv53 = phi i64 [ 0, %.lr.ph39 ], [ %indvars.iv.next54, %33 ]
  %34 = phi double [ 0.000000e+00, %.lr.ph39 ], [ %48, %33 ]
  %35 = phi double [ 0.000000e+00, %.lr.ph39 ], [ %44, %33 ]
  %36 = phi double [ 0.000000e+00, %.lr.ph39 ], [ %40, %33 ]
  %37 = getelementptr inbounds nuw [3 x float], ptr %0, i64 %indvars.iv53
  %38 = load float, ptr %37, align 4, !tbaa !37
  %39 = fpext float %38 to double
  %40 = fadd double %36, %39
  %41 = getelementptr inbounds nuw i8, ptr %37, i64 4
  %42 = load float, ptr %41, align 4, !tbaa !37
  %43 = fpext float %42 to double
  %44 = fadd double %35, %43
  %45 = getelementptr inbounds nuw i8, ptr %37, i64 8
  %46 = load float, ptr %45, align 4, !tbaa !37
  %47 = fpext float %46 to double
  %48 = fadd double %34, %47
  %indvars.iv.next54 = add nuw nsw i64 %indvars.iv53, 1
  %exitcond57.not = icmp eq i64 %indvars.iv.next54, %wide.trip.count56
  br i1 %exitcond57.not, label %..loopexit_crit_edge, label %33, !llvm.loop !69

..loopexit_crit_edge:                             ; preds = %33
  store double %40, ptr %3, align 8, !tbaa !70
  store double %44, ptr %8, align 8, !tbaa !70
  store double %48, ptr %9, align 8, !tbaa !70
  br label %.loopexit

..loopexit31_crit_edge:                           ; preds = %10
  store double %28, ptr %3, align 8, !tbaa !70
  store double %30, ptr %6, align 8, !tbaa !70
  store double %32, ptr %7, align 8, !tbaa !70
  br label %.loopexit

.loopexit:                                        ; preds = %.preheader30, %..loopexit31_crit_edge, %.preheader, %..loopexit_crit_edge
  %.1 = phi double [ 0.000000e+00, %..loopexit_crit_edge ], [ 0.000000e+00, %.preheader ], [ %17, %..loopexit31_crit_edge ], [ 0.000000e+00, %.preheader30 ]
  ret double %.1
}